; Function Attrs: mustprogress uwtable
define void @_ZN8nanobind6detail27raise_next_overload_if_nullEPv(ptr noundef readnone %0) local_unnamed_addr #15 personality ptr @__gxx_personality_v0 {
  %.not = icmp eq ptr %0, null
  br i1 %.not, label %2, label %7, !prof !3

2:                                                ; preds = %1
  %3 = tail call ptr @__cxa_allocate_exception(i64 24) #27
  invoke void @_ZN8nanobind13next_overloadEPKc(ptr dead_on_unwind writable sret(%"class.nanobind::builtin_exception") align 8 %3, ptr noundef null)
          to label %4 unwind label %5

4:                                                ; preds = %2
  tail call void @__cxa_throw(ptr %3, ptr nonnull @_ZTIN8nanobind17builtin_exceptionE, ptr nonnull @_ZN8nanobind17builtin_exceptionD1Ev) #28
  unreachable

5:                                                ; preds = %2
  %6 = landingpad { ptr, i32 }
          cleanup
  tail call void @__cxa_free_exception(ptr %3) #27
  resume { ptr, i32 } %6

7:                                                ; preds = %1
  ret void
}